target datalayout = "e-m:e-p270:32:32-p271:32:32-p272:64:64-i64:64-i128:128-f80:128-n8:16:32:64-S128"
target triple = "x86_64-pc-linux-gnu"

%class.InlineTree = type <{ ptr, ptr, ptr, i8, [7 x i8], ptr, i32, i32, %class.GrowableArray, ptr, i8, [7 x i8] }>
%class.GrowableArray = type { %class.GrowableArrayWithAllocator, %class.GrowableArrayMetadata }
%class.GrowableArrayWithAllocator = type { %class.GrowableArrayView }
%class.GrowableArrayView = type { %class.GrowableArrayBase, ptr }
%class.GrowableArrayBase = type { i32, i32 }
%class.GrowableArrayMetadata = type { i64 }
%class.JVMState = type { ptr, i32, i32, i32, i32, i32, i32, i32, i32, i32, ptr, ptr }

@g_assert_poison = external global ptr, align 8
@.str.36 = private unnamed_addr constant [40 x i8] c"src/hotspot/share/opto/bytecodeInfo.cpp\00", align 1
@.str.44 = private unnamed_addr constant [33 x i8] c"guarantee(sub != nullptr) failed\00", align 1
@.str.45 = private unnamed_addr constant [25 x i8] c"should be a sub-ilt here\00", align 1

; Function Attrs: mustprogress nounwind uwtable
define linkonce_odr hidden noundef ptr @_ZNK10InlineTree6methodEv(ptr noundef nonnull align 8 dereferenceable(81) %0) #1 comdat align 2 {
  %2 = alloca ptr, align 8
  store ptr %0, ptr %2, align 8
  %3 = load ptr, ptr %2, align 8
  %4 = getelementptr inbounds %class.InlineTree, ptr %3, i32 0, i32 2
  %5 = load ptr, ptr %4, align 8
  ret ptr %5
}

; Function Attrs: mustprogress nounwind uwtable
define linkonce_odr hidden noundef i32 @_ZNK10InlineTree10caller_bciEv(ptr noundef nonnull align 8 dereferenceable(81) %0) #1 comdat align 2 {
  %2 = alloca ptr, align 8
  store ptr %0, ptr %2, align 8
  %3 = load ptr, ptr %2, align 8
  %4 = getelementptr inbounds %class.InlineTree, ptr %3, i32 0, i32 1
  %5 = load ptr, ptr %4, align 8
  %6 = icmp ne ptr %5, null
  br i1 %6, label %7, label %11

7:                                                ; preds = %1
  %8 = getelementptr inbounds %class.InlineTree, ptr %3, i32 0, i32 1
  %9 = load ptr, ptr %8, align 8
  %10 = call noundef i32 @_ZNK8JVMState3bciEv(ptr noundef nonnull align 8 dereferenceable(64) %9)
  br label %12

11:                                               ; preds = %1
  br label %12

12:                                               ; preds = %11, %7
  %13 = phi i32 [ %10, %7 ], [ -1, %11 ]
  ret i32 %13
}

; Function Attrs: mustprogress nounwind uwtable
define linkonce_odr hidden noundef nonnull align 8 dereferenceable(8) ptr @_ZNK17GrowableArrayViewIP10InlineTreeE2atEi(ptr noundef nonnull align 8 dereferenceable(16) %0, i32 noundef %1) #1 comdat align 2 {
  %3 = alloca ptr, align 8
  %4 = alloca i32, align 4
  store ptr %0, ptr %3, align 8
  store i32 %1, ptr %4, align 4
  %5 = load ptr, ptr %3, align 8
  %6 = getelementptr inbounds %class.GrowableArrayView, ptr %5, i32 0, i32 1
  %7 = load ptr, ptr %6, align 8
  %8 = load i32, ptr %4, align 4
  %9 = sext i32 %8 to i64
  %10 = getelementptr inbounds ptr, ptr %7, i64 %9
  ret ptr %10
}

; Function Attrs: mustprogress nounwind uwtable
define linkonce_odr hidden noundef i32 @_ZNK17GrowableArrayBase6lengthEv(ptr noundef nonnull align 4 dereferenceable(8) %0) #1 comdat align 2 {
  %2 = alloca ptr, align 8
  store ptr %0, ptr %2, align 8
  %3 = load ptr, ptr %2, align 8
  %4 = getelementptr inbounds %class.GrowableArrayBase, ptr %3, i32 0, i32 0
  %5 = load i32, ptr %4, align 4
  ret i32 %5
}

; Function Attrs: mustprogress nounwind uwtable
define hidden noundef ptr @_ZNK10InlineTree9callee_atEiP8ciMethod(ptr noundef nonnull align 8 dereferenceable(81) %0, i32 noundef %1, ptr noundef %2) #1 align 2 {
  %4 = alloca ptr, align 8
  %5 = alloca ptr, align 8
  %6 = alloca i32, align 4
  %7 = alloca ptr, align 8
  %8 = alloca i32, align 4
  %9 = alloca ptr, align 8
  store ptr %0, ptr %5, align 8
  store i32 %1, ptr %6, align 4
  store ptr %2, ptr %7, align 8
  %10 = load ptr, ptr %5, align 8
  store i32 0, ptr %8, align 4
  br label %11

11:                                               ; preds = %33, %3
  %12 = load i32, ptr %8, align 4
  %13 = getelementptr inbounds %class.InlineTree, ptr %10, i32 0, i32 8
  %14 = call noundef i32 @_ZNK17GrowableArrayBase6lengthEv(ptr noundef nonnull align 4 dereferenceable(8) %13)
  %15 = icmp slt i32 %12, %14
  br i1 %15, label %16, label %36

16:                                               ; preds = %11
  %17 = getelementptr inbounds %class.InlineTree, ptr %10, i32 0, i32 8
  %18 = load i32, ptr %8, align 4
  %19 = call noundef nonnull align 8 dereferenceable(8) ptr @_ZNK17GrowableArrayViewIP10InlineTreeE2atEi(ptr noundef nonnull align 8 dereferenceable(16) %17, i32 noundef %18)
  %20 = load ptr, ptr %19, align 8
  store ptr %20, ptr %9, align 8
  %21 = load ptr, ptr %9, align 8
  %22 = call noundef i32 @_ZNK10InlineTree10caller_bciEv(ptr noundef nonnull align 8 dereferenceable(81) %21)
  %23 = load i32, ptr %6, align 4
  %24 = icmp eq i32 %22, %23
  br i1 %24, label %25, label %32

25:                                               ; preds = %16
  %26 = load ptr, ptr %7, align 8
  %27 = load ptr, ptr %9, align 8
  %28 = call noundef ptr @_ZNK10InlineTree6methodEv(ptr noundef nonnull align 8 dereferenceable(81) %27)
  %29 = icmp eq ptr %26, %28
  br i1 %29, label %30, label %32

30:                                               ; preds = %25
  %31 = load ptr, ptr %9, align 8
  store ptr %31, ptr %4, align 8
  br label %37

32:                                               ; preds = %25, %16
  br label %33

33:                                               ; preds = %32
  %34 = load i32, ptr %8, align 4
  %35 = add nsw i32 %34, 1
  store i32 %35, ptr %8, align 4
  br label %11, !llvm.loop !10

36:                                               ; preds = %11
  store ptr null, ptr %4, align 8
  br label %37

37:                                               ; preds = %36, %30
  %38 = load ptr, ptr %4, align 8
  ret ptr %38
}

; Function Attrs: mustprogress nounwind uwtable
define linkonce_odr hidden noundef i32 @_ZNK8JVMState3bciEv(ptr noundef nonnull align 8 dereferenceable(64) %0) #1 comdat align 2 {
  %2 = alloca ptr, align 8
  store ptr %0, ptr %2, align 8
  %3 = load ptr, ptr %2, align 8
  %4 = getelementptr inbounds %class.JVMState, ptr %3, i32 0, i32 8
  %5 = load i32, ptr %4, align 4
  ret i32 %5
}

; Function Attrs: mustprogress nounwind uwtable
define linkonce_odr hidden noundef ptr @_ZNK8JVMState6methodEv(ptr noundef nonnull align 8 dereferenceable(64) %0) #1 comdat align 2 {
  %2 = alloca ptr, align 8
  store ptr %0, ptr %2, align 8
  %3 = load ptr, ptr %2, align 8
  %4 = getelementptr inbounds %class.JVMState, ptr %3, i32 0, i32 10
  %5 = load ptr, ptr %4, align 8
  ret ptr %5
}

; Function Attrs: mustprogress nounwind uwtable
define linkonce_odr hidden noundef i32 @_ZNK8JVMState5depthEv(ptr noundef nonnull align 8 dereferenceable(64) %0) #1 comdat align 2 {
  %2 = alloca ptr, align 8
  store ptr %0, ptr %2, align 8
  %3 = load ptr, ptr %2, align 8
  %4 = getelementptr inbounds %class.JVMState, ptr %3, i32 0, i32 1
  %5 = load i32, ptr %4, align 8
  ret i32 %5
}

; Function Attrs: mustprogress nounwind uwtable
define linkonce_odr hidden noundef zeroext i1 @_ZNK8JVMState10has_methodEv(ptr noundef nonnull align 8 dereferenceable(64) %0) #1 comdat align 2 {
  %2 = alloca ptr, align 8
  store ptr %0, ptr %2, align 8
  %3 = load ptr, ptr %2, align 8
  %4 = getelementptr inbounds %class.JVMState, ptr %3, i32 0, i32 10
  %5 = load ptr, ptr %4, align 8
  %6 = icmp ne ptr %5, null
  ret i1 %6
}

; Function Attrs: mustprogress nounwind uwtable
define hidden noundef ptr @_ZN10InlineTree22find_subtree_from_rootEPS_P8JVMStateP8ciMethod(ptr noundef %0, ptr noundef %1, ptr noundef %2) #1 align 2 {
  %4 = alloca ptr, align 8
  %5 = alloca ptr, align 8
  %6 = alloca ptr, align 8
  %7 = alloca ptr, align 8
  %8 = alloca ptr, align 8
  %9 = alloca i32, align 4
  %10 = alloca i32, align 4
  %11 = alloca ptr, align 8
  %12 = alloca ptr, align 8
  %13 = alloca ptr, align 8
  store ptr %0, ptr %5, align 8
  store ptr %1, ptr %6, align 8
  store ptr %2, ptr %7, align 8
  %14 = load ptr, ptr %5, align 8
  store ptr %14, ptr %8, align 8
  %15 = load ptr, ptr %6, align 8
  %16 = icmp ne ptr %15, null
  br i1 %16, label %17, label %23

17:                                               ; preds = %3
  %18 = load ptr, ptr %6, align 8
  %19 = call noundef zeroext i1 @_ZNK8JVMState10has_methodEv(ptr noundef nonnull align 8 dereferenceable(64) %18)
  br i1 %19, label %20, label %23

20:                                               ; preds = %17
  %21 = load ptr, ptr %6, align 8
  %22 = call noundef i32 @_ZNK8JVMState5depthEv(ptr noundef nonnull align 8 dereferenceable(64) %21)
  br label %24

23:                                               ; preds = %17, %3
  br label %24

24:                                               ; preds = %23, %20
  %25 = phi i32 [ %22, %20 ], [ 0, %23 ]
  store i32 %25, ptr %9, align 4
  store i32 1, ptr %10, align 4
  br label %26

26:                                               ; preds = %76, %24
  %27 = load i32, ptr %10, align 4
  %28 = load i32, ptr %9, align 4
  %29 = icmp ule i32 %27, %28
  br i1 %29, label %30, label %79

30:                                               ; preds = %26
  %31 = load ptr, ptr %6, align 8
  %32 = load i32, ptr %10, align 4
  %33 = call noundef ptr @_ZNK8JVMState8of_depthEi(ptr noundef nonnull align 8 dereferenceable(64) %31, i32 noundef %32)
  store ptr %33, ptr %11, align 8
  %34 = load i32, ptr %10, align 4
  %35 = load i32, ptr %9, align 4
  %36 = icmp eq i32 %34, %35
  br i1 %36, label %37, label %39

37:                                               ; preds = %30
  %38 = load ptr, ptr %7, align 8
  br label %45

39:                                               ; preds = %30
  %40 = load ptr, ptr %6, align 8
  %41 = load i32, ptr %10, align 4
  %42 = add i32 %41, 1
  %43 = call noundef ptr @_ZNK8JVMState8of_depthEi(ptr noundef nonnull align 8 dereferenceable(64) %40, i32 noundef %42)
  %44 = call noundef ptr @_ZNK8JVMState6methodEv(ptr noundef nonnull align 8 dereferenceable(64) %43)
  br label %45

45:                                               ; preds = %39, %37
  %46 = phi ptr [ %38, %37 ], [ %44, %39 ]
  store ptr %46, ptr %12, align 8
  %47 = load ptr, ptr %8, align 8
  %48 = load ptr, ptr %11, align 8
  %49 = call noundef i32 @_ZNK8JVMState3bciEv(ptr noundef nonnull align 8 dereferenceable(64) %48)
  %50 = load ptr, ptr %12, align 8
  %51 = call noundef ptr @_ZNK10InlineTree9callee_atEiP8ciMethod(ptr noundef nonnull align 8 dereferenceable(81) %47, i32 noundef %49, ptr noundef %50)
  store ptr %51, ptr %13, align 8
  %52 = load ptr, ptr %13, align 8
  %53 = icmp eq ptr %52, null
  br i1 %53, label %54, label %74

54:                                               ; preds = %45
  %55 = load i32, ptr %10, align 4
  %56 = load i32, ptr %9, align 4
  %57 = icmp eq i32 %55, %56
  br i1 %57, label %58, label %65

58:                                               ; preds = %54
  %59 = load ptr, ptr %8, align 8
  %60 = load ptr, ptr %12, align 8
  %61 = load ptr, ptr %11, align 8
  %62 = load ptr, ptr %11, align 8
  %63 = call noundef i32 @_ZNK8JVMState3bciEv(ptr noundef nonnull align 8 dereferenceable(64) %62)
  %64 = call noundef ptr @_ZN10InlineTree28build_inline_tree_for_calleeEP8ciMethodP8JVMStatei(ptr noundef nonnull align 8 dereferenceable(81) %59, ptr noundef %60, ptr noundef %61, i32 noundef %63)
  store ptr %64, ptr %13, align 8
  br label %65

65:                                               ; preds = %58, %54
  br label %66

66:                                               ; preds = %65
  %67 = load ptr, ptr %13, align 8
  %68 = icmp ne ptr %67, null
  br i1 %68, label %71, label %69

69:                                               ; preds = %66
  %70 = load ptr, ptr @g_assert_poison, align 8
  store i8 88, ptr %70, align 1
  call void (ptr, i32, ptr, ptr, ...) @_Z15report_vm_errorPKciS0_S0_z(ptr noundef @.str.36, i32 noundef 695, ptr noundef @.str.44, ptr noundef @.str.45) #8
  unreachable

71:                                               ; preds = %66
  br label %72

72:                                               ; preds = %71
  %73 = load ptr, ptr %13, align 8
  store ptr %73, ptr %4, align 8
  br label %81

74:                                               ; preds = %45
  %75 = load ptr, ptr %13, align 8
  store ptr %75, ptr %8, align 8
  br label %76

76:                                               ; preds = %74
  %77 = load i32, ptr %10, align 4
  %78 = add i32 %77, 1
  store i32 %78, ptr %10, align 4
  br label %26, !llvm.loop !11

79:                                               ; preds = %26
  %80 = load ptr, ptr %8, align 8
  store ptr %80, ptr %4, align 8
  br label %81

81:                                               ; preds = %79, %72
  %82 = load ptr, ptr %4, align 8
  ret ptr %82
}