; Function Attrs: mustprogress nounwind uwtable
define hidden noundef ptr @_ZN10InlineTree22find_subtree_from_rootEPS_P8JVMStateP8ciMethod(ptr noundef %0, ptr noundef %1, ptr noundef %2) local_unnamed_addr #0 align 2 {
  %.not = icmp eq ptr %1, null
  br i1 %.not, label %.loopexit40, label %4

4:                                                ; preds = %3
  %5 = getelementptr inbounds i8, ptr %1, i64 48
  %6 = load ptr, ptr %5, align 8
  %.not39 = icmp eq ptr %6, null
  br i1 %.not39, label %.loopexit40, label %7

7:                                                ; preds = %4
  %8 = getelementptr inbounds i8, ptr %1, i64 8
  %9 = load i32, ptr %8, align 8
  %.not3454 = icmp eq i32 %9, 0
  br i1 %.not3454, label %.loopexit40, label %.lr.ph

.lr.ph:                                           ; preds = %7, %_ZNK10InlineTree9callee_atEiP8ciMethod.exit
  %.02956 = phi ptr [ %28, %_ZNK10InlineTree9callee_atEiP8ciMethod.exit ], [ %0, %7 ]
  %.03055 = phi i32 [ %44, %_ZNK10InlineTree9callee_atEiP8ciMethod.exit ], [ 1, %7 ]
  %10 = tail call noundef ptr @_ZNK8JVMState8of_depthEi(ptr noundef nonnull align 8 dereferenceable(64) %1, i32 noundef %.03055) #10
  %11 = icmp eq i32 %.03055, %9
  br i1 %11, label %17, label %12

12:                                               ; preds = %.lr.ph
  %13 = add i32 %.03055, 1
  %14 = tail call noundef ptr @_ZNK8JVMState8of_depthEi(ptr noundef nonnull align 8 dereferenceable(64) %1, i32 noundef %13) #10
  %15 = getelementptr inbounds i8, ptr %14, i64 48
  %16 = load ptr, ptr %15, align 8
  br label %17

17:                                               ; preds = %.lr.ph, %12
  %18 = phi ptr [ %16, %12 ], [ %2, %.lr.ph ]
  %19 = getelementptr inbounds i8, ptr %10, i64 36
  %20 = load i32, ptr %19, align 4
  %21 = getelementptr inbounds i8, ptr %.02956, i64 48
  %22 = load i32, ptr %21, align 4
  %23 = icmp sgt i32 %22, 0
  br i1 %23, label %.lr.ph.i, label %.loopexit

.lr.ph.i:                                         ; preds = %17
  %24 = getelementptr inbounds i8, ptr %.02956, i64 56
  %25 = load ptr, ptr %24, align 8
  %wide.trip.count.i = zext nneg i32 %22 to i64
  br label %26

26:                                               ; preds = %40, %.lr.ph.i
  %indvars.iv.i = phi i64 [ 0, %.lr.ph.i ], [ %indvars.iv.next.i, %40 ]
  %27 = getelementptr inbounds ptr, ptr %25, i64 %indvars.iv.i
  %28 = load ptr, ptr %27, align 8
  %29 = getelementptr inbounds i8, ptr %28, i64 8
  %30 = load ptr, ptr %29, align 8
  %.not.i.i = icmp eq ptr %30, null
  br i1 %.not.i.i, label %_ZNK10InlineTree10caller_bciEv.exit.i, label %31

31:                                               ; preds = %26
  %32 = getelementptr inbounds i8, ptr %30, i64 36
  %33 = load i32, ptr %32, align 4
  br label %_ZNK10InlineTree10caller_bciEv.exit.i

_ZNK10InlineTree10caller_bciEv.exit.i:            ; preds = %31, %26
  %34 = phi i32 [ %33, %31 ], [ -1, %26 ]
  %35 = icmp eq i32 %34, %20
  br i1 %35, label %36, label %40

36:                                               ; preds = %_ZNK10InlineTree10caller_bciEv.exit.i
  %37 = getelementptr inbounds i8, ptr %28, i64 16
  %38 = load ptr, ptr %37, align 8
  %39 = icmp eq ptr %38, %18
  br i1 %39, label %_ZNK10InlineTree9callee_atEiP8ciMethod.exit, label %40

40:                                               ; preds = %36, %_ZNK10InlineTree10caller_bciEv.exit.i
  %indvars.iv.next.i = add nuw nsw i64 %indvars.iv.i, 1
  %exitcond.not.i = icmp eq i64 %indvars.iv.next.i, %wide.trip.count.i
  br i1 %exitcond.not.i, label %.loopexit, label %26, !llvm.loop !10

.loopexit:                                        ; preds = %17, %40
  br i1 %11, label %41, label %.thread

41:                                               ; preds = %.loopexit
  %42 = tail call noundef ptr @_ZN10InlineTree28build_inline_tree_for_calleeEP8ciMethodP8JVMStatei(ptr noundef nonnull align 8 dereferenceable(81) %.02956, ptr noundef %18, ptr noundef nonnull %10, i32 noundef %20)
  %.not35 = icmp eq ptr %42, null
  br i1 %.not35, label %.thread, label %.loopexit40

.thread:                                          ; preds = %.loopexit, %41
  %43 = load ptr, ptr @g_assert_poison, align 8
  store i8 88, ptr %43, align 1
  tail call void (ptr, i32, ptr, ptr, ...) @_Z15report_vm_errorPKciS0_S0_z(ptr noundef nonnull @.str.36, i32 noundef 695, ptr noundef nonnull @.str.44, ptr noundef nonnull @.str.45) #11
  unreachable

_ZNK10InlineTree9callee_atEiP8ciMethod.exit:      ; preds = %36
  %44 = add i32 %.03055, 1
  %.not34 = icmp ugt i32 %44, %9
  br i1 %.not34, label %.loopexit40, label %.lr.ph, !llvm.loop !11

.loopexit40:                                      ; preds = %_ZNK10InlineTree9callee_atEiP8ciMethod.exit, %3, %4, %7, %41
  %.028 = phi ptr [ %42, %41 ], [ %0, %7 ], [ %0, %4 ], [ %0, %3 ], [ %28, %_ZNK10InlineTree9callee_atEiP8ciMethod.exit ]
  ret ptr %.028
}